Certificate:
    Data:
        Version: 3 (0x2)
        Serial Number:
            54:26:f0:3f:6b:e5:b7:6a:37:35:a2:e3:c5:75:54:fa
        Signature Algorithm: sha256WithRSAEncryption
        Issuer: CN=den_openvpn
        Validity
            Not Before: Aug 11 17:02:41 2024 GMT
            Not After : Nov 14 17:02:41 2026 GMT
        Subject: CN=test1
        Subject Public Key Info:
            Public Key Algorithm: rsaEncryption
                Public-Key: (2048 bit)
                Modulus:
                    00:b1:51:5e:61:ff:76:b0:96:59:88:5c:39:9f:3f:
                    5a:ae:d2:f7:2a:a2:84:18:cf:24:22:92:d8:e7:79:
                    f9:2d:66:a0:e2:42:14:b8:54:78:42:4a:5a:9a:b9:
                    90:a8:38:15:c1:cb:9c:d7:f0:79:e8:67:55:39:39:
                    1a:56:a9:fc:4f:9a:0b:f3:9e:7b:93:78:8b:4f:e5:
                    77:13:a8:82:22:5c:8f:76:82:46:fb:90:ec:b2:d6:
                    0f:e4:7e:ab:b9:30:8e:95:55:da:3f:d6:ce:d2:36:
                    7a:66:3d:43:35:99:f0:be:b2:33:c6:24:59:7b:cf:
                    3e:81:0e:26:a6:9c:25:e8:d5:72:fa:de:8d:6a:e0:
                    9e:26:f2:52:68:e8:c6:87:60:86:50:a0:10:35:4c:
                    58:04:66:19:d0:6f:b5:f1:54:9e:8b:61:14:ea:77:
                    db:07:ca:d3:42:cf:b9:70:a7:3f:12:78:b5:77:7e:
                    bc:9e:df:9d:2f:08:f5:d3:66:11:c7:aa:7f:d4:ae:
                    2f:bc:6d:5d:7e:4d:8d:c2:79:36:06:3d:1c:b5:3f:
                    bd:07:1f:ff:91:19:7f:cc:73:db:7f:d2:7d:ad:8a:
                    cd:5d:49:0c:ca:6f:7b:02:1b:de:33:91:ea:30:47:
                    0e:e4:96:a1:58:d6:e5:da:31:81:68:a8:c1:5c:02:
                    c7:3d
                Exponent: 65537 (0x10001)
        X509v3 extensions:
            X509v3 Basic Constraints: 
                CA:FALSE
            X509v3 Subject Key Identifier: 
                96:61:D4:FC:9F:7F:F8:B1:29:2D:59:9E:4E:1E:C4:76:49:C1:70:EA
            X509v3 Authority Key Identifier: 
                keyid:12:83:7E:1F:3B:74:51:EC:CB:4F:D1:2B:A5:03:E0:1F:CA:75:B2:BD
                DirName:/CN=den_openvpn
                serial:29:65:49:F2:2F:72:39:C6:77:75:F3:2E:2C:A4:A7:CF:06:DB:EB:A3
            X509v3 Extended Key Usage: 
                TLS Web Client Authentication
            X509v3 Key Usage: 
                Digital Signature
    Signature Algorithm: sha256WithRSAEncryption
    Signature Value:
        47:8c:31:16:6b:27:08:10:19:48:8d:ca:22:b3:84:e6:81:ac:
        fd:04:63:ee:cb:b8:51:0d:45:a1:10:aa:ba:cd:df:f5:cb:2b:
        eb:b5:81:3f:4f:cb:46:67:4b:52:f4:86:b2:41:80:51:fa:9a:
        a4:50:8f:40:36:a9:7f:59:c0:bc:4b:96:b3:f2:eb:eb:e6:9d:
        3a:67:63:98:b7:b1:8a:5f:54:26:c6:54:71:78:3a:01:c2:cf:
        3d:d5:71:45:9f:bd:7c:f8:cc:9d:6b:2d:dc:59:73:ec:ae:54:
        d3:42:dc:7d:ca:d9:97:63:41:56:29:30:58:81:d3:32:12:b7:
        a5:e6:15:33:af:f6:16:31:47:87:31:06:f1:ca:4c:da:dd:71:
        6a:c7:b4:a6:af:0f:f9:af:0d:ce:5a:3b:c0:cc:7c:69:3c:8c:
        c1:54:a1:c1:f6:4a:fd:cc:f4:e7:9e:a2:4e:20:dc:5b:29:0b:
        ba:2f:9a:a7:4f:08:2d:a9:fa:e2:4b:69:39:56:71:57:83:63:
        b2:b9:20:c5:68:33:3a:1f:7e:84:1b:19:cd:e3:f7:84:aa:7e:
        2c:cf:86:c4:c2:a8:c5:69:bd:94:70:94:ca:96:bc:ea:f7:76:
        10:b1:83:f4:37:16:27:54:60:ee:af:ba:08:36:17:00:66:57:
        65:33:84:e9
-----BEGIN CERTIFICATE-----
MIIDUzCCAjugAwIBAgIQVCbwP2vlt2o3NaLjxXVU+jANBgkqhkiG9w0BAQsFADAW
MRQwEgYDVQQDDAtkZW5fb3BlbnZwbjAeFw0yNDA4MTExNzAyNDFaFw0yNjExMTQx
NzAyNDFaMBAxDjAMBgNVBAMMBXRlc3QxMIIBIjANBgkqhkiG9w0BAQEFAAOCAQ8A
MIIBCgKCAQEAsVFeYf92sJZZiFw5nz9artL3KqKEGM8kIpLY53n5LWag4kIUuFR4
QkpamrmQqDgVwcuc1/B56GdVOTkaVqn8T5oL8557k3iLT+V3E6iCIlyPdoJG+5Ds
stYP5H6ruTCOlVXaP9bO0jZ6Zj1DNZnwvrIzxiRZe88+gQ4mppwl6NVy+t6NauCe
JvJSaOjGh2CGUKAQNUxYBGYZ0G+18VSei2EU6nfbB8rTQs+5cKc/Eni1d368nt+d
Lwj102YRx6p/1K4vvG1dfk2Nwnk2Bj0ctT+9Bx//kRl/zHPbf9J9rYrNXUkMym97
AhveM5HqMEcO5JahWNbl2jGBaKjBXALHPQIDAQABo4GiMIGfMAkGA1UdEwQCMAAw
HQYDVR0OBBYEFJZh1Pyff/ixKS1Znk4exHZJwXDqMFEGA1UdIwRKMEiAFBKDfh87
dFHsy0/RK6UD4B/KdbK9oRqkGDAWMRQwEgYDVQQDDAtkZW5fb3BlbnZwboIUKWVJ
8i9yOcZ3dfMuLKSnzwbb66MwEwYDVR0lBAwwCgYIKwYBBQUHAwIwCwYDVR0PBAQD
AgeAMA0GCSqGSIb3DQEBCwUAA4IBAQBHjDEWaycIEBlIjcois4Tmgaz9BGPuy7hR
DUWhEKq6zd/1yyvrtYE/T8tGZ0tS9IayQYBR+pqkUI9ANql/WcC8S5az8uvr5p06
Z2OYt7GKX1QmxlRxeDoBws891XFFn718+Myday3cWXPsrlTTQtx9ytmXY0FWKTBY
gdMyErel5hUzr/YWMUeHMQbxykza3XFqx7Smrw/5rw3OWjvAzHxpPIzBVKHB9kr9
zPTnnqJOINxbKQu6L5qnTwgtqfriS2k5VnFXg2OyuSDFaDM6H36EGxnN4/eEqn4s
z4bEwqjFab2UcJTKlrzq93YQsYP0NxYnVGDur7oINhcAZldlM4Tp
-----END CERTIFICATE-----
