Certificate:
    Data:
        Version: 3 (0x2)
        Serial Number:
            ae:3e:1c:60:ed:a9:ff:cd:9c:5f:d4:f9:1a:7e:f0:48
        Signature Algorithm: sha256WithRSAEncryption
        Issuer: CN=den_openvpn
        Validity
            Not Before: Aug 11 16:48:03 2024 GMT
            Not After : Nov 14 16:48:03 2026 GMT
        Subject: CN=den_openvpn
        Subject Public Key Info:
            Public Key Algorithm: rsaEncryption
                Public-Key: (2048 bit)
                Modulus:
                    00:d9:d8:b7:3e:78:8b:93:a1:04:2b:9f:21:f3:25:
                    05:4a:3a:6f:74:0e:b7:f1:9f:2a:38:9a:21:dc:21:
                    cc:d8:04:e4:ca:e3:71:4d:cb:f9:8a:7d:93:3a:21:
                    f2:1f:10:a9:04:af:f5:d8:ec:18:9d:ca:92:f9:25:
                    d3:95:67:2a:4d:ad:72:ba:71:1d:28:1b:29:eb:4d:
                    16:d2:b2:1d:0f:a4:b7:f2:f4:88:54:db:fc:20:58:
                    61:21:e4:65:8a:0d:dc:b3:56:3c:8f:ee:5f:1e:05:
                    ed:cb:89:9e:0f:d8:f8:7d:f0:d6:28:0a:25:17:4b:
                    96:7e:02:a4:53:48:c7:42:e8:86:ad:48:d6:43:a1:
                    b0:89:10:a3:f1:f8:eb:33:d0:be:df:12:7c:e6:0f:
                    b6:f1:f5:e9:eb:05:ac:43:ac:bd:35:98:4d:ea:fb:
                    01:ff:54:46:fb:b2:05:38:41:f2:33:f8:dd:52:b4:
                    6d:2e:db:8a:ef:92:c5:61:50:0b:0e:51:4f:f3:82:
                    76:51:c3:9f:41:36:55:5b:d9:4b:50:30:24:07:ae:
                    6d:35:dc:c0:ae:fb:35:0a:2a:36:92:b6:84:0a:4e:
                    3c:e6:a5:af:69:42:de:c9:08:e3:4e:3f:a1:08:57:
                    b1:00:5c:18:f7:59:20:7c:a1:c3:f0:e1:aa:5b:9f:
                    07:cb
                Exponent: 65537 (0x10001)
        X509v3 extensions:
            X509v3 Basic Constraints: 
                CA:FALSE
            X509v3 Subject Key Identifier: 
                C6:1B:76:5A:CE:9C:7F:39:08:95:7F:B7:E8:59:B5:DA:DA:6F:FF:F4
            X509v3 Authority Key Identifier: 
                keyid:12:83:7E:1F:3B:74:51:EC:CB:4F:D1:2B:A5:03:E0:1F:CA:75:B2:BD
                DirName:/CN=den_openvpn
                serial:29:65:49:F2:2F:72:39:C6:77:75:F3:2E:2C:A4:A7:CF:06:DB:EB:A3
            X509v3 Extended Key Usage: 
                TLS Web Server Authentication
            X509v3 Key Usage: 
                Digital Signature, Key Encipherment
            X509v3 Subject Alternative Name: 
                DNS:den_openvpn
    Signature Algorithm: sha256WithRSAEncryption
    Signature Value:
        4f:e2:c6:f7:41:65:76:c4:59:e3:e9:c0:0f:57:fc:c6:73:7b:
        7f:57:cd:3f:58:9d:04:04:86:61:b1:a7:bf:65:0a:b1:62:8b:
        b3:d8:62:f7:04:e7:bb:7f:02:6d:29:a4:b0:25:82:30:d2:3f:
        4c:d0:64:90:d7:f9:2c:37:cc:ee:aa:91:70:eb:33:f4:b9:fb:
        25:09:0a:c7:a5:b9:dd:30:26:bb:46:47:ca:5b:fc:57:97:0e:
        7d:28:f0:22:5b:6e:77:91:77:5b:77:90:b8:02:66:fd:1e:24:
        d5:3a:87:de:4a:7b:b8:ec:69:ba:bd:97:c7:bc:6a:ca:05:5d:
        86:fb:29:65:d4:40:78:f7:b0:3d:1d:bc:bf:09:9e:7b:53:72:
        ba:b6:97:f6:1e:a9:93:58:26:9e:ac:20:84:8d:50:23:d8:c4:
        d1:40:8d:b7:a1:70:19:72:aa:09:83:b5:e1:a7:61:2d:f8:67:
        69:4b:44:2f:48:9a:1f:15:01:99:b7:87:59:72:4e:6d:56:42:
        a9:97:42:df:68:27:20:3f:83:c2:c5:8c:2b:04:08:d8:45:3c:
        3f:aa:d8:44:a6:ed:e9:cd:d6:c0:5a:43:13:95:e2:8e:e3:ce:
        ad:67:f8:ae:ca:0a:4e:c0:ba:1c:61:e0:63:34:21:46:39:b0:
        31:c4:20:6a
-----BEGIN CERTIFICATE-----
MIIDcjCCAlqgAwIBAgIRAK4+HGDtqf/NnF/U+Rp+8EgwDQYJKoZIhvcNAQELBQAw
FjEUMBIGA1UEAwwLZGVuX29wZW52cG4wHhcNMjQwODExMTY0ODAzWhcNMjYxMTE0
MTY0ODAzWjAWMRQwEgYDVQQDDAtkZW5fb3BlbnZwbjCCASIwDQYJKoZIhvcNAQEB
BQADggEPADCCAQoCggEBANnYtz54i5OhBCufIfMlBUo6b3QOt/GfKjiaIdwhzNgE
5MrjcU3L+Yp9kzoh8h8QqQSv9djsGJ3Kkvkl05VnKk2tcrpxHSgbKetNFtKyHQ+k
t/L0iFTb/CBYYSHkZYoN3LNWPI/uXx4F7cuJng/Y+H3w1igKJRdLln4CpFNIx0Lo
hq1I1kOhsIkQo/H46zPQvt8SfOYPtvH16esFrEOsvTWYTer7Af9URvuyBThB8jP4
3VK0bS7biu+SxWFQCw5RT/OCdlHDn0E2VVvZS1AwJAeubTXcwK77NQoqNpK2hApO
POalr2lC3skI404/oQhXsQBcGPdZIHyhw/DhqlufB8sCAwEAAaOBujCBtzAJBgNV
HRMEAjAAMB0GA1UdDgQWBBTGG3Zazpx/OQiVf7foWbXa2m//9DBRBgNVHSMESjBI
gBQSg34fO3RR7MtP0SulA+AfynWyvaEapBgwFjEUMBIGA1UEAwwLZGVuX29wZW52
cG6CFCllSfIvcjnGd3XzLiykp88G2+ujMBMGA1UdJQQMMAoGCCsGAQUFBwMBMAsG
A1UdDwQEAwIFoDAWBgNVHREEDzANggtkZW5fb3BlbnZwbjANBgkqhkiG9w0BAQsF
AAOCAQEAT+LG90FldsRZ4+nAD1f8xnN7f1fNP1idBASGYbGnv2UKsWKLs9hi9wTn
u38CbSmksCWCMNI/TNBkkNf5LDfM7qqRcOsz9Ln7JQkKx6W53TAmu0ZHylv8V5cO
fSjwIltud5F3W3eQuAJm/R4k1TqH3kp7uOxpur2Xx7xqygVdhvspZdRAePewPR28
vwmee1NyuraX9h6pk1gmnqwghI1QI9jE0UCNt6FwGXKqCYO14adhLfhnaUtEL0ia
HxUBmbeHWXJObVZCqZdC32gnID+DwsWMKwQI2EU8P6rYRKbt6c3WwFpDE5XijuPO
rWf4rsoKTsC6HGHgYzQhRjmwMcQgag==
-----END CERTIFICATE-----
